target datalayout = "e-m:e-p270:32:32-p271:32:32-p272:64:64-i64:64-i128:128-f80:128-n8:16:32:64-S128"
target triple = "x86_64-pc-linux-gnu"

%struct._zend_executor_globals = type { %struct._zval_struct, %struct._zval_struct, [32 x ptr], ptr, ptr, %struct._zend_array, %struct._zend_array, ptr, i32, i32, ptr, ptr, ptr, ptr, ptr, ptr, i64, ptr, ptr, i32, i32, i64, i32, i32, i32, i8, i8, %struct.zend_atomic_bool_s, %struct.zend_atomic_bool_s, ptr, i64, ptr, ptr, %struct._zend_array, %struct._zend_array, i32, i8, %struct._zval_struct, %struct._zval_struct, %struct._zend_stack, %struct._zend_stack, %struct._zend_stack, ptr, i32, i32, i64, ptr, ptr, ptr, %struct._zend_objects_store, ptr, ptr, ptr, [3 x %struct._zend_op], ptr, i8, i8, i64, i32, i32, ptr, [16 x %struct._HashTableIterator], ptr, %union._zend_function, %struct._zend_op, %struct._zend_array, i64, %struct.zend_get_gc_buffer, ptr, ptr, ptr, i64, i8, i32, ptr, ptr, i64, %struct._zend_call_stack, i64, i64, [6 x ptr] }
%struct.zend_atomic_bool_s = type { i8 }
%struct._zval_struct = type { %union._zend_value, %union.anon, %union.anon.2 }
%union._zend_value = type { i64 }
%union.anon = type { i32 }
%union.anon.2 = type { i32 }
%struct._zend_stack = type { i32, i32, i32, ptr }
%struct._zend_objects_store = type { ptr, i32, i32, i32 }
%struct._HashTableIterator = type { ptr, i32, i32 }
%union._zend_function = type { %struct._zend_op_array }
%struct._zend_op_array = type { i8, [3 x i8], i32, ptr, ptr, ptr, i32, i32, ptr, ptr, ptr, ptr, i32, i32, i32, i32, ptr, ptr, ptr, ptr, ptr, i32, i32, ptr, ptr, ptr, i32, i32, i32, i32, ptr, ptr, [6 x ptr] }
%struct._zend_op = type { ptr, %union._znode_op, %union._znode_op, %union._znode_op, i32, i32, i8, i8, i8, i8 }
%union._znode_op = type { i32 }
%struct._zend_array = type { %struct._zend_refcounted_h, %union.anon.5, i32, %union.anon.7, i32, i32, i32, i32, i64, ptr }
%struct._zend_refcounted_h = type { i32, %union.anon.3 }
%union.anon.3 = type { i32 }
%union.anon.5 = type { i32 }
%union.anon.7 = type { ptr }
%struct.zend_get_gc_buffer = type { ptr, ptr, ptr }
%struct._zend_call_stack = type { ptr, i64 }
%struct._zend_object_iterator_funcs = type { ptr, ptr, ptr, ptr, ptr, ptr, ptr, ptr }
%struct._zend_object = type { %struct._zend_refcounted_h, i32, ptr, ptr, ptr, [1 x %struct._zval_struct] }
%struct._zend_object_iterator = type { %struct._zend_object, %struct._zval_struct, ptr, i64 }
%struct._zend_reference = type { %struct._zend_refcounted_h, %struct._zval_struct, %union.zend_property_info_source_list }
%union.zend_property_info_source_list = type { ptr }
%struct.anon.0 = type { i8, i8, %union.anon.1 }
%union.anon.1 = type { i16 }
%struct._zend_execute_data = type { ptr, ptr, ptr, ptr, %struct._zval_struct, ptr, ptr, ptr, ptr }
%struct.zend_internal_iterator = type { %struct._zend_object, ptr, i8 }

@executor_globals = external global %struct._zend_executor_globals, align 8
@.str.8 = private unnamed_addr constant [62 x i8] c"The InternalIterator object has not been properly initialized\00", align 1

; Function Attrs: nounwind uwtable
define internal i32 @zend_internal_iterator_ensure_rewound(ptr noundef %0) #0 {
  %2 = alloca i32, align 4
  %3 = alloca ptr, align 8
  %4 = alloca ptr, align 8
  store ptr %0, ptr %3, align 8
  %5 = load ptr, ptr %3, align 8
  %6 = getelementptr inbounds %struct.zend_internal_iterator, ptr %5, i32 0, i32 2
  %7 = load i8, ptr %6, align 8
  %8 = trunc i8 %7 to i1
  br i1 %8, label %38, label %9

9:                                                ; preds = %1
  %10 = load ptr, ptr %3, align 8
  %11 = getelementptr inbounds %struct.zend_internal_iterator, ptr %10, i32 0, i32 1
  %12 = load ptr, ptr %11, align 8
  store ptr %12, ptr %4, align 8
  %13 = load ptr, ptr %3, align 8
  %14 = getelementptr inbounds %struct.zend_internal_iterator, ptr %13, i32 0, i32 2
  store i8 1, ptr %14, align 8
  %15 = load ptr, ptr %4, align 8
  %16 = getelementptr inbounds %struct._zend_object_iterator, ptr %15, i32 0, i32 2
  %17 = load ptr, ptr %16, align 8
  %18 = getelementptr inbounds %struct._zend_object_iterator_funcs, ptr %17, i32 0, i32 5
  %19 = load ptr, ptr %18, align 8
  %20 = icmp ne ptr %19, null
  br i1 %20, label %21, label %37

21:                                               ; preds = %9
  %22 = load ptr, ptr %4, align 8
  %23 = getelementptr inbounds %struct._zend_object_iterator, ptr %22, i32 0, i32 2
  %24 = load ptr, ptr %23, align 8
  %25 = getelementptr inbounds %struct._zend_object_iterator_funcs, ptr %24, i32 0, i32 5
  %26 = load ptr, ptr %25, align 8
  %27 = load ptr, ptr %4, align 8
  call void %26(ptr noundef %27)
  %28 = load ptr, ptr getelementptr inbounds (%struct._zend_executor_globals, ptr @executor_globals, i32 0, i32 50), align 8
  %29 = icmp ne ptr %28, null
  %30 = xor i1 %29, true
  %31 = xor i1 %30, true
  %32 = zext i1 %31 to i32
  %33 = sext i32 %32 to i64
  %34 = icmp ne i64 %33, 0
  br i1 %34, label %35, label %36

35:                                               ; preds = %21
  store i32 -1, ptr %2, align 4
  br label %39

36:                                               ; preds = %21
  br label %37

37:                                               ; preds = %36, %9
  br label %38

38:                                               ; preds = %37, %1
  store i32 0, ptr %2, align 4
  br label %39

39:                                               ; preds = %38, %35
  %40 = load i32, ptr %2, align 4
  ret i32 %40
}

; Function Attrs: nounwind uwtable
define internal ptr @zend_internal_iterator_fetch(ptr noundef %0) #0 {
  %2 = alloca ptr, align 8
  %3 = alloca ptr, align 8
  %4 = alloca ptr, align 8
  store ptr %0, ptr %3, align 8
  %5 = load ptr, ptr %3, align 8
  %6 = getelementptr inbounds %struct._zval_struct, ptr %5, i32 0, i32 0
  %7 = load ptr, ptr %6, align 8
  store ptr %7, ptr %4, align 8
  %8 = load ptr, ptr %4, align 8
  %9 = getelementptr inbounds %struct.zend_internal_iterator, ptr %8, i32 0, i32 1
  %10 = load ptr, ptr %9, align 8
  %11 = icmp ne ptr %10, null
  br i1 %11, label %13, label %12

12:                                               ; preds = %1
  call void (ptr, ptr, ...) @zend_throw_error(ptr noundef null, ptr noundef @.str.8)
  store ptr null, ptr %2, align 8
  br label %15

13:                                               ; preds = %1
  %14 = load ptr, ptr %4, align 8
  store ptr %14, ptr %2, align 8
  br label %15

15:                                               ; preds = %13, %12
  %16 = load ptr, ptr %2, align 8
  ret ptr %16
}

; Function Attrs: nounwind uwtable
define hidden void @zim_InternalIterator_current(ptr noundef %0, ptr noundef %1) #0 {
  %3 = alloca ptr, align 8
  %4 = alloca ptr, align 8
  %5 = alloca ptr, align 8
  %6 = alloca ptr, align 8
  %7 = alloca ptr, align 8
  %8 = alloca ptr, align 8
  %9 = alloca ptr, align 8
  %10 = alloca ptr, align 8
  %11 = alloca ptr, align 8
  %12 = alloca ptr, align 8
  %13 = alloca ptr, align 8
  %14 = alloca ptr, align 8
  %15 = alloca i32, align 4
  store ptr %0, ptr %7, align 8
  store ptr %1, ptr %8, align 8
  br label %16

16:                                               ; preds = %2
  %17 = load ptr, ptr %7, align 8
  %18 = getelementptr inbounds %struct._zend_execute_data, ptr %17, i32 0, i32 4
  %19 = getelementptr inbounds %struct._zval_struct, ptr %18, i32 0, i32 2
  %20 = load i32, ptr %19, align 4
  %21 = icmp ne i32 %20, 0
  %22 = xor i1 %21, true
  %23 = xor i1 %22, true
  %24 = zext i1 %23 to i32
  %25 = sext i32 %24 to i64
  %26 = icmp ne i64 %25, 0
  br i1 %26, label %27, label %28

27:                                               ; preds = %16
  call void @zend_wrong_parameters_none_error()
  br label %142

28:                                               ; preds = %16
  br label %29

29:                                               ; preds = %28
  %30 = load ptr, ptr %7, align 8
  %31 = getelementptr inbounds %struct._zend_execute_data, ptr %30, i32 0, i32 4
  %32 = call ptr @zend_internal_iterator_fetch(ptr noundef %31)
  store ptr %32, ptr %9, align 8
  %33 = load ptr, ptr %9, align 8
  %34 = icmp ne ptr %33, null
  br i1 %34, label %40, label %35

35:                                               ; preds = %29
  br label %36

36:                                               ; preds = %35
  %37 = load ptr, ptr getelementptr inbounds (%struct._zend_executor_globals, ptr @executor_globals, i32 0, i32 50), align 8
  %38 = icmp ne ptr %37, null
  call void @llvm.assume(i1 %38)
  br label %142

39:                                               ; No predecessors!
  br label %40

40:                                               ; preds = %39, %29
  %41 = load ptr, ptr %9, align 8
  %42 = call i32 @zend_internal_iterator_ensure_rewound(ptr noundef %41)
  %43 = icmp eq i32 %42, -1
  br i1 %43, label %44, label %49

44:                                               ; preds = %40
  br label %45

45:                                               ; preds = %44
  %46 = load ptr, ptr getelementptr inbounds (%struct._zend_executor_globals, ptr @executor_globals, i32 0, i32 50), align 8
  %47 = icmp ne ptr %46, null
  call void @llvm.assume(i1 %47)
  br label %142

48:                                               ; No predecessors!
  br label %49

49:                                               ; preds = %48, %40
  %50 = load ptr, ptr %9, align 8
  %51 = getelementptr inbounds %struct.zend_internal_iterator, ptr %50, i32 0, i32 1
  %52 = load ptr, ptr %51, align 8
  %53 = getelementptr inbounds %struct._zend_object_iterator, ptr %52, i32 0, i32 2
  %54 = load ptr, ptr %53, align 8
  %55 = getelementptr inbounds %struct._zend_object_iterator_funcs, ptr %54, i32 0, i32 2
  %56 = load ptr, ptr %55, align 8
  %57 = load ptr, ptr %9, align 8
  %58 = getelementptr inbounds %struct.zend_internal_iterator, ptr %57, i32 0, i32 1
  %59 = load ptr, ptr %58, align 8
  %60 = call ptr %56(ptr noundef %59)
  store ptr %60, ptr %10, align 8
  %61 = load ptr, ptr %10, align 8
  %62 = icmp ne ptr %61, null
  br i1 %62, label %63, label %142

63:                                               ; preds = %49
  br label %64

64:                                               ; preds = %63
  br label %65

65:                                               ; preds = %64
  %66 = load ptr, ptr %10, align 8
  store ptr %66, ptr %11, align 8
  %67 = load ptr, ptr %11, align 8
  %68 = getelementptr inbounds %struct._zval_struct, ptr %67, i32 0, i32 1
  %69 = load i32, ptr %68, align 8
  %70 = and i32 %69, 65280
  %71 = icmp ne i32 %70, 0
  br i1 %71, label %72, label %121

72:                                               ; preds = %65
  %73 = load ptr, ptr %11, align 8
  %74 = getelementptr inbounds %struct._zval_struct, ptr %73, i32 0, i32 1
  %75 = load i32, ptr %74, align 8
  %76 = and i32 %75, 255
  %77 = icmp eq i32 %76, 10
  %78 = xor i1 %77, true
  %79 = xor i1 %78, true
  %80 = zext i1 %79 to i32
  %81 = sext i32 %80 to i64
  %82 = icmp ne i64 %81, 0
  br i1 %82, label %83, label %107

83:                                               ; preds = %72
  %84 = load ptr, ptr %11, align 8
  %85 = getelementptr inbounds %struct._zval_struct, ptr %84, i32 0, i32 0
  %86 = load ptr, ptr %85, align 8
  %87 = getelementptr inbounds %struct._zend_reference, ptr %86, i32 0, i32 1
  store ptr %87, ptr %11, align 8
  %88 = load ptr, ptr %11, align 8
  %89 = getelementptr inbounds %struct._zval_struct, ptr %88, i32 0, i32 1
  %90 = load i32, ptr %89, align 8
  %91 = and i32 %90, 65280
  %92 = icmp ne i32 %91, 0
  br i1 %92, label %93, label %106

93:                                               ; preds = %83
  %94 = load ptr, ptr %11, align 8
  store ptr %94, ptr %5, align 8
  %95 = load ptr, ptr %5, align 8
  %96 = getelementptr inbounds %struct._zval_struct, ptr %95, i32 0, i32 1
  %97 = getelementptr inbounds %struct.anon.0, ptr %96, i32 0, i32 1
  %98 = load i8, ptr %97, align 1
  %99 = zext i8 %98 to i32
  %100 = icmp ne i32 %99, 0
  call void @llvm.assume(i1 %100)
  %101 = load ptr, ptr %5, align 8
  %102 = load ptr, ptr %101, align 8
  store ptr %102, ptr %4, align 8
  %103 = load ptr, ptr %4, align 8
  %104 = load i32, ptr %103, align 4
  %105 = add i32 %104, 1
  store i32 %105, ptr %103, align 4
  br label %106

106:                                              ; preds = %93, %83
  br label %120

107:                                              ; preds = %72
  %108 = load ptr, ptr %11, align 8
  store ptr %108, ptr %6, align 8
  %109 = load ptr, ptr %6, align 8
  %110 = getelementptr inbounds %struct._zval_struct, ptr %109, i32 0, i32 1
  %111 = getelementptr inbounds %struct.anon.0, ptr %110, i32 0, i32 1
  %112 = load i8, ptr %111, align 1
  %113 = zext i8 %112 to i32
  %114 = icmp ne i32 %113, 0
  call void @llvm.assume(i1 %114)
  %115 = load ptr, ptr %6, align 8
  %116 = load ptr, ptr %115, align 8
  store ptr %116, ptr %3, align 8
  %117 = load ptr, ptr %3, align 8
  %118 = load i32, ptr %117, align 4
  %119 = add i32 %118, 1
  store i32 %119, ptr %117, align 4
  br label %120

120:                                              ; preds = %107, %106
  br label %121

121:                                              ; preds = %120, %65
  br label %122

122:                                              ; preds = %121
  %123 = load ptr, ptr %8, align 8
  store ptr %123, ptr %12, align 8
  %124 = load ptr, ptr %11, align 8
  store ptr %124, ptr %13, align 8
  %125 = load ptr, ptr %13, align 8
  %126 = getelementptr inbounds %struct._zval_struct, ptr %125, i32 0, i32 0
  %127 = load ptr, ptr %126, align 8
  store ptr %127, ptr %14, align 8
  %128 = load ptr, ptr %13, align 8
  %129 = getelementptr inbounds %struct._zval_struct, ptr %128, i32 0, i32 1
  %130 = load i32, ptr %129, align 8
  store i32 %130, ptr %15, align 4
  br label %131

131:                                              ; preds = %122
  %132 = load ptr, ptr %14, align 8
  %133 = load ptr, ptr %12, align 8
  %134 = getelementptr inbounds %struct._zval_struct, ptr %133, i32 0, i32 0
  store ptr %132, ptr %134, align 8
  %135 = load i32, ptr %15, align 4
  %136 = load ptr, ptr %12, align 8
  %137 = getelementptr inbounds %struct._zval_struct, ptr %136, i32 0, i32 1
  store i32 %135, ptr %137, align 8
  br label %138

138:                                              ; preds = %131
  br label %139

139:                                              ; preds = %138
  br label %140

140:                                              ; preds = %139
  br label %142

141:                                              ; No predecessors!
  br label %142

142:                                              ; preds = %141, %140, %49, %45, %36, %27
  ret void
}